#include <math.h>
#include <stdio.h>
#include <stdlib.h>
#include <string.h>


int main()
{
	int i,j,k;
	char a[100]={0};
	char b[100]={0};
	scanf("%s",a);
	scanf("%s",b);
	int c[100]={0};
	int sum=0;

	if(strlen(a)!=strlen(b))
		{printf("NO");
	return 0;}
	else{

	for(i=0;i<100;i++)
		for(j=0;j<100;j++)
			if((a[i]==b[j])&&(a[i]!='0')&&(!c[j]))
					{c[j]=1;
					break;}


	for(i=0;i<strlen(b);i++)
		sum=sum+c[i];
	
	if(sum==strlen(b))
		printf("YES");
	else
		printf("NO");



	}
	
}