; ModuleID = '36/1586.c'
source_filename = "36/1586.c"
target datalayout = "e-m:e-p270:32:32-p271:32:32-p272:64:64-i64:64-f80:128-n8:16:32:64-S128"
target triple = "x86_64-pc-linux-gnu"

@.str = private unnamed_addr constant [3 x i8] c"%s\00", align 1
@.str.1 = private unnamed_addr constant [3 x i8] c"NO\00", align 1
@.str.2 = private unnamed_addr constant [4 x i8] c"YES\00", align 1

; Function Attrs: noinline nounwind uwtable
define dso_local i32 @main() #0 {
  %1 = alloca i32, align 4
  %2 = alloca i32, align 4
  %3 = alloca i32, align 4
  %4 = alloca i32, align 4
  %5 = alloca [100 x i8], align 16
  %6 = alloca [100 x i8], align 16
  %7 = alloca [100 x i32], align 16
  %8 = alloca i32, align 4
  store i32 0, i32* %1, align 4
  %9 = bitcast [100 x i8]* %5 to i8*
  call void @llvm.memset.p0i8.i64(i8* align 16 %9, i8 0, i64 100, i1 false)
  %10 = bitcast [100 x i8]* %6 to i8*
  call void @llvm.memset.p0i8.i64(i8* align 16 %10, i8 0, i64 100, i1 false)
  %11 = getelementptr inbounds [100 x i8], [100 x i8]* %5, i64 0, i64 0
  %12 = call i32 (i8*, ...) @__isoc99_scanf(i8* getelementptr inbounds ([3 x i8], [3 x i8]* @.str, i64 0, i64 0), i8* %11)
  %13 = getelementptr inbounds [100 x i8], [100 x i8]* %6, i64 0, i64 0
  %14 = call i32 (i8*, ...) @__isoc99_scanf(i8* getelementptr inbounds ([3 x i8], [3 x i8]* @.str, i64 0, i64 0), i8* %13)
  %15 = bitcast [100 x i32]* %7 to i8*
  call void @llvm.memset.p0i8.i64(i8* align 16 %15, i8 0, i64 400, i1 false)
  store i32 0, i32* %8, align 4
  %16 = getelementptr inbounds [100 x i8], [100 x i8]* %5, i64 0, i64 0
  %17 = call i64 @strlen(i8* %16) #4
  %18 = getelementptr inbounds [100 x i8], [100 x i8]* %6, i64 0, i64 0
  %19 = call i64 @strlen(i8* %18) #4
  %20 = icmp ne i64 %17, %19
  br i1 %20, label %21, label %23

21:                                               ; preds = %0
  %22 = call i32 (i8*, ...) @printf(i8* getelementptr inbounds ([3 x i8], [3 x i8]* @.str.1, i64 0, i64 0))
  store i32 0, i32* %1, align 4
  br label %96

23:                                               ; preds = %0
  store i32 0, i32* %2, align 4
  br label %24

24:                                               ; preds = %65, %23
  %25 = load i32, i32* %2, align 4
  %26 = icmp slt i32 %25, 100
  br i1 %26, label %27, label %68

27:                                               ; preds = %24
  store i32 0, i32* %3, align 4
  br label %28

28:                                               ; preds = %61, %27
  %29 = load i32, i32* %3, align 4
  %30 = icmp slt i32 %29, 100
  br i1 %30, label %31, label %64

31:                                               ; preds = %28
  %32 = load i32, i32* %2, align 4
  %33 = sext i32 %32 to i64
  %34 = getelementptr inbounds [100 x i8], [100 x i8]* %5, i64 0, i64 %33
  %35 = load i8, i8* %34, align 1
  %36 = sext i8 %35 to i32
  %37 = load i32, i32* %3, align 4
  %38 = sext i32 %37 to i64
  %39 = getelementptr inbounds [100 x i8], [100 x i8]* %6, i64 0, i64 %38
  %40 = load i8, i8* %39, align 1
  %41 = sext i8 %40 to i32
  %42 = icmp eq i32 %36, %41
  br i1 %42, label %43, label %60

43:                                               ; preds = %31
  %44 = load i32, i32* %2, align 4
  %45 = sext i32 %44 to i64
  %46 = getelementptr inbounds [100 x i8], [100 x i8]* %5, i64 0, i64 %45
  %47 = load i8, i8* %46, align 1
  %48 = sext i8 %47 to i32
  %49 = icmp ne i32 %48, 48
  br i1 %49, label %50, label %60

50:                                               ; preds = %43
  %51 = load i32, i32* %3, align 4
  %52 = sext i32 %51 to i64
  %53 = getelementptr inbounds [100 x i32], [100 x i32]* %7, i64 0, i64 %52
  %54 = load i32, i32* %53, align 4
  %55 = icmp ne i32 %54, 0
  br i1 %55, label %60, label %56

56:                                               ; preds = %50
  %57 = load i32, i32* %3, align 4
  %58 = sext i32 %57 to i64
  %59 = getelementptr inbounds [100 x i32], [100 x i32]* %7, i64 0, i64 %58
  store i32 1, i32* %59, align 4
  br label %64

60:                                               ; preds = %50, %43, %31
  br label %61

61:                                               ; preds = %60
  %62 = load i32, i32* %3, align 4
  %63 = add nsw i32 %62, 1
  store i32 %63, i32* %3, align 4
  br label %28

64:                                               ; preds = %56, %28
  br label %65

65:                                               ; preds = %64
  %66 = load i32, i32* %2, align 4
  %67 = add nsw i32 %66, 1
  store i32 %67, i32* %2, align 4
  br label %24

68:                                               ; preds = %24
  store i32 0, i32* %2, align 4
  br label %69

69:                                               ; preds = %82, %68
  %70 = load i32, i32* %2, align 4
  %71 = sext i32 %70 to i64
  %72 = getelementptr inbounds [100 x i8], [100 x i8]* %6, i64 0, i64 0
  %73 = call i64 @strlen(i8* %72) #4
  %74 = icmp ult i64 %71, %73
  br i1 %74, label %75, label %85

75:                                               ; preds = %69
  %76 = load i32, i32* %8, align 4
  %77 = load i32, i32* %2, align 4
  %78 = sext i32 %77 to i64
  %79 = getelementptr inbounds [100 x i32], [100 x i32]* %7, i64 0, i64 %78
  %80 = load i32, i32* %79, align 4
  %81 = add nsw i32 %76, %80
  store i32 %81, i32* %8, align 4
  br label %82

82:                                               ; preds = %75
  %83 = load i32, i32* %2, align 4
  %84 = add nsw i32 %83, 1
  store i32 %84, i32* %2, align 4
  br label %69

85:                                               ; preds = %69
  %86 = load i32, i32* %8, align 4
  %87 = sext i32 %86 to i64
  %88 = getelementptr inbounds [100 x i8], [100 x i8]* %6, i64 0, i64 0
  %89 = call i64 @strlen(i8* %88) #4
  %90 = icmp eq i64 %87, %89
  br i1 %90, label %91, label %93

91:                                               ; preds = %85
  %92 = call i32 (i8*, ...) @printf(i8* getelementptr inbounds ([4 x i8], [4 x i8]* @.str.2, i64 0, i64 0))
  br label %95

93:                                               ; preds = %85
  %94 = call i32 (i8*, ...) @printf(i8* getelementptr inbounds ([3 x i8], [3 x i8]* @.str.1, i64 0, i64 0))
  br label %95

95:                                               ; preds = %93, %91
  br label %96

96:                                               ; preds = %21, %95
  %97 = load i32, i32* %1, align 4
  ret i32 %97
}

; Function Attrs: argmemonly nounwind willreturn
declare void @llvm.memset.p0i8.i64(i8* nocapture writeonly, i8, i64, i1 immarg) #1

declare dso_local i32 @__isoc99_scanf(i8*, ...) #2

; Function Attrs: nounwind readonly
declare dso_local i64 @strlen(i8*) #3

declare dso_local i32 @printf(i8*, ...) #2


!llvm.module.flags = !{!0}
!llvm.ident = !{!1}

!0 = !{i32 1, !"wchar_size", i32 4}
!1 = !{!"clang version 10.0.0-4ubuntu1 "}
